(dp0
S'score'
p1
I225
sS'name'
p2
S'tim'
p3
s.(dp0
S'score'
p1
I200
sS'name'
p2
S'Tonny'
p3
s.(dp0
S'score'
p1
I180
sS'name'
p2
S'Jack'
p3
s.(dp0
S'score'
p1
I180
sS'name'
p2
S'Jack'
p3
s.(dp0
S'score'
p1
I155
sS'name'
p2
S'b'
p3
s.(dp0
S'score'
p1
I100
sS'name'
p2
S'SA'
p3
s.(dp0
S'score'
p1
I100
sS'name'
p2
S'Mack'
p3
s.(dp0
S'score'
p1
I100
sS'name'
p2
S'Kim'
p3
s.(dp0
S'score'
p1
I90
sS'name'
p2
S'G'
p3
s.(dp0
S'score'
p1
I85
sS'name'
p2
S'L'
p3
s.(dp0
S'score'
p1
I75
sS'name'
p2
S'g'
p3
s.(dp0
S'score'
p1
I70
sS'name'
p2
S'Gim'
p3
s.(dp0
S'score'
p1
I25
sS'name'
p2
S'DF'
p3
s.(dp0
S'score'
p1
I21
sS'name'
p2
S'Tom'
p3
s.(dp0
S'score'
p1
I10
sS'name'
p2
S'Jim'
p3
s.